
Release/ParkingSensor.elf:     file format elf32-avr

Sections:
Idx Name          Size      VMA       LMA       File off  Algn
  0 .data         0000002c  00800100  000007e4  00000878  2**0
                  CONTENTS, ALLOC, LOAD, DATA
  1 .text         000007e4  00000000  00000000  00000094  2**1
                  CONTENTS, ALLOC, LOAD, READONLY, CODE
  2 .bss          00000010  0080012c  0080012c  000008a4  2**0
                  ALLOC
  3 .comment      00000030  00000000  00000000  000008a4  2**0
                  CONTENTS, READONLY

Disassembly of section .text:

00000000 <__vectors>:
   0:	28 c0       	rjmp	.+80     	; 0x52 <__ctors_end>
   2:	c1 c2       	rjmp	.+1410   	; 0x586 <__vector_1>
   4:	41 c0       	rjmp	.+130    	; 0x88 <__bad_interrupt>
   6:	40 c0       	rjmp	.+128    	; 0x88 <__bad_interrupt>
   8:	3f c0       	rjmp	.+126    	; 0x88 <__bad_interrupt>
   a:	3e c0       	rjmp	.+124    	; 0x88 <__bad_interrupt>
   c:	3d c0       	rjmp	.+122    	; 0x88 <__bad_interrupt>
   e:	8d c2       	rjmp	.+1306   	; 0x52a <__vector_7>
  10:	3b c0       	rjmp	.+118    	; 0x88 <__bad_interrupt>
  12:	3a c0       	rjmp	.+116    	; 0x88 <__bad_interrupt>
  14:	39 c0       	rjmp	.+114    	; 0x88 <__bad_interrupt>
  16:	38 c0       	rjmp	.+112    	; 0x88 <__bad_interrupt>
  18:	37 c0       	rjmp	.+110    	; 0x88 <__bad_interrupt>
  1a:	36 c0       	rjmp	.+108    	; 0x88 <__bad_interrupt>
  1c:	9d c2       	rjmp	.+1338   	; 0x558 <__vector_14>
  1e:	34 c0       	rjmp	.+104    	; 0x88 <__bad_interrupt>
  20:	33 c0       	rjmp	.+102    	; 0x88 <__bad_interrupt>
  22:	32 c0       	rjmp	.+100    	; 0x88 <__bad_interrupt>
  24:	31 c0       	rjmp	.+98     	; 0x88 <__bad_interrupt>
  26:	30 c0       	rjmp	.+96     	; 0x88 <__bad_interrupt>
  28:	2f c0       	rjmp	.+94     	; 0x88 <__bad_interrupt>
  2a:	2e c0       	rjmp	.+92     	; 0x88 <__bad_interrupt>
  2c:	2d c0       	rjmp	.+90     	; 0x88 <__bad_interrupt>
  2e:	2c c0       	rjmp	.+88     	; 0x88 <__bad_interrupt>
  30:	2b c0       	rjmp	.+86     	; 0x88 <__bad_interrupt>
  32:	2a c0       	rjmp	.+84     	; 0x88 <__bad_interrupt>

00000034 <MkBuildTime>:
  34:	30 30 3a 35 34 3a 31 34 00                          00:54:14.

0000003d <MkBuildDate>:
  3d:	32 30 31 38 2d 31 32 2d 31 39 00                    2018-12-19.

00000048 <MkBuildNumber>:
  48:	33 36 36 00                                         366.

0000004c <MkBuildVersion>:
  4c:	31 2e 30 2e 30 00                                   1.0.0.

00000052 <__ctors_end>:
  52:	11 24       	eor	r1, r1
  54:	1f be       	out	0x3f, r1	; 63
  56:	cf ef       	ldi	r28, 0xFF	; 255
  58:	d4 e0       	ldi	r29, 0x04	; 4
  5a:	de bf       	out	0x3e, r29	; 62
  5c:	cd bf       	out	0x3d, r28	; 61

0000005e <__do_copy_data>:
  5e:	11 e0       	ldi	r17, 0x01	; 1
  60:	a0 e0       	ldi	r26, 0x00	; 0
  62:	b1 e0       	ldi	r27, 0x01	; 1
  64:	e4 ee       	ldi	r30, 0xE4	; 228
  66:	f7 e0       	ldi	r31, 0x07	; 7
  68:	02 c0       	rjmp	.+4      	; 0x6e <__do_copy_data+0x10>
  6a:	05 90       	lpm	r0, Z+
  6c:	0d 92       	st	X+, r0
  6e:	ac 32       	cpi	r26, 0x2C	; 44
  70:	b1 07       	cpc	r27, r17
  72:	d9 f7       	brne	.-10     	; 0x6a <__do_copy_data+0xc>

00000074 <__do_clear_bss>:
  74:	21 e0       	ldi	r18, 0x01	; 1
  76:	ac e2       	ldi	r26, 0x2C	; 44
  78:	b1 e0       	ldi	r27, 0x01	; 1
  7a:	01 c0       	rjmp	.+2      	; 0x7e <.do_clear_bss_start>

0000007c <.do_clear_bss_loop>:
  7c:	1d 92       	st	X+, r1

0000007e <.do_clear_bss_start>:
  7e:	ac 33       	cpi	r26, 0x3C	; 60
  80:	b2 07       	cpc	r27, r18
  82:	e1 f7       	brne	.-8      	; 0x7c <.do_clear_bss_loop>
  84:	d7 d1       	rcall	.+942    	; 0x434 <main>
  86:	ac c3       	rjmp	.+1880   	; 0x7e0 <_exit>

00000088 <__bad_interrupt>:
  88:	bb cf       	rjmp	.-138    	; 0x0 <__vectors>

0000008a <data_dir_out>:
  8a:	38 9a       	sbi	0x07, 0	; 7
  8c:	39 9a       	sbi	0x07, 1	; 7
  8e:	3a 9a       	sbi	0x07, 2	; 7
  90:	3b 9a       	sbi	0x07, 3	; 7
  92:	08 95       	ret

00000094 <lcd_sendHalf>:
  94:	80 ff       	sbrs	r24, 0
  96:	02 c0       	rjmp	.+4      	; 0x9c <lcd_sendHalf+0x8>
  98:	43 9a       	sbi	0x08, 3	; 8
  9a:	01 c0       	rjmp	.+2      	; 0x9e <lcd_sendHalf+0xa>
  9c:	43 98       	cbi	0x08, 3	; 8
  9e:	81 ff       	sbrs	r24, 1
  a0:	02 c0       	rjmp	.+4      	; 0xa6 <lcd_sendHalf+0x12>
  a2:	42 9a       	sbi	0x08, 2	; 8
  a4:	01 c0       	rjmp	.+2      	; 0xa8 <lcd_sendHalf+0x14>
  a6:	42 98       	cbi	0x08, 2	; 8
  a8:	82 ff       	sbrs	r24, 2
  aa:	02 c0       	rjmp	.+4      	; 0xb0 <lcd_sendHalf+0x1c>
  ac:	41 9a       	sbi	0x08, 1	; 8
  ae:	01 c0       	rjmp	.+2      	; 0xb2 <lcd_sendHalf+0x1e>
  b0:	41 98       	cbi	0x08, 1	; 8
  b2:	83 ff       	sbrs	r24, 3
  b4:	02 c0       	rjmp	.+4      	; 0xba <lcd_sendHalf+0x26>
  b6:	40 9a       	sbi	0x08, 0	; 8
  b8:	08 95       	ret
  ba:	40 98       	cbi	0x08, 0	; 8
  bc:	08 95       	ret

000000be <_lcd_write_byte>:
  be:	cf 93       	push	r28
  c0:	c8 2f       	mov	r28, r24
  c2:	e3 df       	rcall	.-58     	; 0x8a <data_dir_out>
  c4:	44 9a       	sbi	0x08, 4	; 8
  c6:	8c 2f       	mov	r24, r28
  c8:	82 95       	swap	r24
  ca:	8f 70       	andi	r24, 0x0F	; 15
  cc:	e3 df       	rcall	.-58     	; 0x94 <lcd_sendHalf>
  ce:	44 98       	cbi	0x08, 4	; 8
  d0:	44 9a       	sbi	0x08, 4	; 8
  d2:	8c 2f       	mov	r24, r28
  d4:	df df       	rcall	.-66     	; 0x94 <lcd_sendHalf>
  d6:	44 98       	cbi	0x08, 4	; 8
  d8:	88 e2       	ldi	r24, 0x28	; 40
  da:	8a 95       	dec	r24
  dc:	f1 f7       	brne	.-4      	; 0xda <_lcd_write_byte+0x1c>
  de:	cf 91       	pop	r28
  e0:	08 95       	ret

000000e2 <lcd_write_cmd>:
  e2:	45 98       	cbi	0x08, 5	; 8
  e4:	ec cf       	rjmp	.-40     	; 0xbe <_lcd_write_byte>

000000e6 <lcd_write_data>:
  e6:	45 9a       	sbi	0x08, 5	; 8
  e8:	ea cf       	rjmp	.-44     	; 0xbe <_lcd_write_byte>

000000ea <lcd_str>:
  ea:	cf 93       	push	r28
  ec:	df 93       	push	r29
  ee:	ec 01       	movw	r28, r24
  f0:	89 91       	ld	r24, Y+
  f2:	88 23       	and	r24, r24
  f4:	39 f0       	breq	.+14     	; 0x104 <lcd_str+0x1a>
  f6:	90 e8       	ldi	r25, 0x80	; 128
  f8:	98 0f       	add	r25, r24
  fa:	98 30       	cpi	r25, 0x08	; 8
  fc:	08 f4       	brcc	.+2      	; 0x100 <lcd_str+0x16>
  fe:	87 70       	andi	r24, 0x07	; 7
 100:	f2 df       	rcall	.-28     	; 0xe6 <lcd_write_data>
 102:	f6 cf       	rjmp	.-20     	; 0xf0 <lcd_str+0x6>
 104:	df 91       	pop	r29
 106:	cf 91       	pop	r28
 108:	08 95       	ret

0000010a <lcd_int>:
 10a:	cf 93       	push	r28
 10c:	df 93       	push	r29
 10e:	cd b7       	in	r28, 0x3d	; 61
 110:	de b7       	in	r29, 0x3e	; 62
 112:	61 97       	sbiw	r28, 0x11	; 17
 114:	0f b6       	in	r0, 0x3f	; 63
 116:	f8 94       	cli
 118:	de bf       	out	0x3e, r29	; 62
 11a:	0f be       	out	0x3f, r0	; 63
 11c:	cd bf       	out	0x3d, r28	; 61
 11e:	4a e0       	ldi	r20, 0x0A	; 10
 120:	be 01       	movw	r22, r28
 122:	6f 5f       	subi	r22, 0xFF	; 255
 124:	7f 4f       	sbci	r23, 0xFF	; 255
 126:	29 d3       	rcall	.+1618   	; 0x77a <__itoa_ncheck>
 128:	e0 df       	rcall	.-64     	; 0xea <lcd_str>
 12a:	61 96       	adiw	r28, 0x11	; 17
 12c:	0f b6       	in	r0, 0x3f	; 63
 12e:	f8 94       	cli
 130:	de bf       	out	0x3e, r29	; 62
 132:	0f be       	out	0x3f, r0	; 63
 134:	cd bf       	out	0x3d, r28	; 61
 136:	df 91       	pop	r29
 138:	cf 91       	pop	r28
 13a:	08 95       	ret

0000013c <lcd_locate>:
 13c:	81 30       	cpi	r24, 0x01	; 1
 13e:	09 f4       	brne	.+2      	; 0x142 <lcd_locate+0x6>
 140:	80 e4       	ldi	r24, 0x40	; 64
 142:	60 58       	subi	r22, 0x80	; 128
 144:	86 0f       	add	r24, r22
 146:	cd cf       	rjmp	.-102    	; 0xe2 <lcd_write_cmd>

00000148 <lcd_cls>:
 148:	81 e0       	ldi	r24, 0x01	; 1
 14a:	cb df       	rcall	.-106    	; 0xe2 <lcd_write_cmd>
 14c:	88 ec       	ldi	r24, 0xC8	; 200
 14e:	94 e0       	ldi	r25, 0x04	; 4
 150:	01 97       	sbiw	r24, 0x01	; 1
 152:	f1 f7       	brne	.-4      	; 0x150 <lcd_cls+0x8>
 154:	00 c0       	rjmp	.+0      	; 0x156 <lcd_cls+0xe>
 156:	00 00       	nop
 158:	08 95       	ret

0000015a <lcd_init>:
 15a:	97 df       	rcall	.-210    	; 0x8a <data_dir_out>
 15c:	3d 9a       	sbi	0x07, 5	; 7
 15e:	3c 9a       	sbi	0x07, 4	; 7
 160:	45 9a       	sbi	0x08, 5	; 8
 162:	44 9a       	sbi	0x08, 4	; 8
 164:	85 ea       	ldi	r24, 0xA5	; 165
 166:	9e e0       	ldi	r25, 0x0E	; 14
 168:	01 97       	sbiw	r24, 0x01	; 1
 16a:	f1 f7       	brne	.-4      	; 0x168 <lcd_init+0xe>
 16c:	00 c0       	rjmp	.+0      	; 0x16e <lcd_init+0x14>
 16e:	00 00       	nop
 170:	44 98       	cbi	0x08, 4	; 8
 172:	45 98       	cbi	0x08, 5	; 8
 174:	46 98       	cbi	0x08, 6	; 8
 176:	44 9a       	sbi	0x08, 4	; 8
 178:	83 e0       	ldi	r24, 0x03	; 3
 17a:	8c df       	rcall	.-232    	; 0x94 <lcd_sendHalf>
 17c:	44 98       	cbi	0x08, 4	; 8
 17e:	80 e0       	ldi	r24, 0x00	; 0
 180:	94 e0       	ldi	r25, 0x04	; 4
 182:	01 97       	sbiw	r24, 0x01	; 1
 184:	f1 f7       	brne	.-4      	; 0x182 <lcd_init+0x28>
 186:	00 c0       	rjmp	.+0      	; 0x188 <lcd_init+0x2e>
 188:	00 00       	nop
 18a:	44 9a       	sbi	0x08, 4	; 8
 18c:	83 e0       	ldi	r24, 0x03	; 3
 18e:	82 df       	rcall	.-252    	; 0x94 <lcd_sendHalf>
 190:	44 98       	cbi	0x08, 4	; 8
 192:	91 e2       	ldi	r25, 0x21	; 33
 194:	9a 95       	dec	r25
 196:	f1 f7       	brne	.-4      	; 0x194 <lcd_init+0x3a>
 198:	00 00       	nop
 19a:	44 9a       	sbi	0x08, 4	; 8
 19c:	83 e0       	ldi	r24, 0x03	; 3
 19e:	7a df       	rcall	.-268    	; 0x94 <lcd_sendHalf>
 1a0:	44 98       	cbi	0x08, 4	; 8
 1a2:	81 e2       	ldi	r24, 0x21	; 33
 1a4:	8a 95       	dec	r24
 1a6:	f1 f7       	brne	.-4      	; 0x1a4 <lcd_init+0x4a>
 1a8:	00 00       	nop
 1aa:	44 9a       	sbi	0x08, 4	; 8
 1ac:	82 e0       	ldi	r24, 0x02	; 2
 1ae:	72 df       	rcall	.-284    	; 0x94 <lcd_sendHalf>
 1b0:	44 98       	cbi	0x08, 4	; 8
 1b2:	91 e2       	ldi	r25, 0x21	; 33
 1b4:	9a 95       	dec	r25
 1b6:	f1 f7       	brne	.-4      	; 0x1b4 <lcd_init+0x5a>
 1b8:	00 00       	nop
 1ba:	88 e2       	ldi	r24, 0x28	; 40
 1bc:	92 df       	rcall	.-220    	; 0xe2 <lcd_write_cmd>
 1be:	88 e0       	ldi	r24, 0x08	; 8
 1c0:	90 df       	rcall	.-224    	; 0xe2 <lcd_write_cmd>
 1c2:	8c e0       	ldi	r24, 0x0C	; 12
 1c4:	8e df       	rcall	.-228    	; 0xe2 <lcd_write_cmd>
 1c6:	86 e0       	ldi	r24, 0x06	; 6
 1c8:	8c df       	rcall	.-232    	; 0xe2 <lcd_write_cmd>
 1ca:	be cf       	rjmp	.-132    	; 0x148 <lcd_cls>

000001cc <trigger>:
 1cc:	83 ed       	ldi	r24, 0xD3	; 211
 1ce:	90 e3       	ldi	r25, 0x30	; 48
 1d0:	01 97       	sbiw	r24, 0x01	; 1
 1d2:	f1 f7       	brne	.-4      	; 0x1d0 <trigger+0x4>
 1d4:	00 c0       	rjmp	.+0      	; 0x1d6 <trigger+0xa>
 1d6:	00 00       	nop
 1d8:	5c 98       	cbi	0x0b, 4	; 11
 1da:	00 c0       	rjmp	.+0      	; 0x1dc <trigger+0x10>
 1dc:	5c 9a       	sbi	0x0b, 4	; 11
 1de:	93 e0       	ldi	r25, 0x03	; 3
 1e0:	9a 95       	dec	r25
 1e2:	f1 f7       	brne	.-4      	; 0x1e0 <trigger+0x14>
 1e4:	00 00       	nop
 1e6:	5c 98       	cbi	0x0b, 4	; 11
 1e8:	08 95       	ret

000001ea <buzzer_led>:
 1ea:	60 91 30 01 	lds	r22, 0x0130
 1ee:	70 91 31 01 	lds	r23, 0x0131
 1f2:	80 91 32 01 	lds	r24, 0x0132
 1f6:	90 91 33 01 	lds	r25, 0x0133
 1fa:	20 e0       	ldi	r18, 0x00	; 0
 1fc:	30 e0       	ldi	r19, 0x00	; 0
 1fe:	40 e7       	ldi	r20, 0x70	; 112
 200:	51 e4       	ldi	r21, 0x41	; 65
 202:	f8 d1       	rcall	.+1008   	; 0x5f4 <__cmpsf2>
 204:	87 ff       	sbrs	r24, 7
 206:	03 c0       	rjmp	.+6      	; 0x20e <buzzer_led+0x24>
 208:	84 e6       	ldi	r24, 0x64	; 100
 20a:	90 e0       	ldi	r25, 0x00	; 0
 20c:	7d c0       	rjmp	.+250    	; 0x308 <buzzer_led+0x11e>
 20e:	60 91 30 01 	lds	r22, 0x0130
 212:	70 91 31 01 	lds	r23, 0x0131
 216:	80 91 32 01 	lds	r24, 0x0132
 21a:	90 91 33 01 	lds	r25, 0x0133
 21e:	20 e0       	ldi	r18, 0x00	; 0
 220:	30 e0       	ldi	r19, 0x00	; 0
 222:	40 ea       	ldi	r20, 0xA0	; 160
 224:	51 e4       	ldi	r21, 0x41	; 65
 226:	e6 d1       	rcall	.+972    	; 0x5f4 <__cmpsf2>
 228:	87 ff       	sbrs	r24, 7
 22a:	03 c0       	rjmp	.+6      	; 0x232 <buzzer_led+0x48>
 22c:	88 ec       	ldi	r24, 0xC8	; 200
 22e:	90 e0       	ldi	r25, 0x00	; 0
 230:	6b c0       	rjmp	.+214    	; 0x308 <buzzer_led+0x11e>
 232:	60 91 30 01 	lds	r22, 0x0130
 236:	70 91 31 01 	lds	r23, 0x0131
 23a:	80 91 32 01 	lds	r24, 0x0132
 23e:	90 91 33 01 	lds	r25, 0x0133
 242:	20 e0       	ldi	r18, 0x00	; 0
 244:	30 e0       	ldi	r19, 0x00	; 0
 246:	48 ec       	ldi	r20, 0xC8	; 200
 248:	51 e4       	ldi	r21, 0x41	; 65
 24a:	d4 d1       	rcall	.+936    	; 0x5f4 <__cmpsf2>
 24c:	87 ff       	sbrs	r24, 7
 24e:	03 c0       	rjmp	.+6      	; 0x256 <buzzer_led+0x6c>
 250:	80 e9       	ldi	r24, 0x90	; 144
 252:	91 e0       	ldi	r25, 0x01	; 1
 254:	59 c0       	rjmp	.+178    	; 0x308 <buzzer_led+0x11e>
 256:	60 91 30 01 	lds	r22, 0x0130
 25a:	70 91 31 01 	lds	r23, 0x0131
 25e:	80 91 32 01 	lds	r24, 0x0132
 262:	90 91 33 01 	lds	r25, 0x0133
 266:	20 e0       	ldi	r18, 0x00	; 0
 268:	30 e0       	ldi	r19, 0x00	; 0
 26a:	40 ef       	ldi	r20, 0xF0	; 240
 26c:	51 e4       	ldi	r21, 0x41	; 65
 26e:	c2 d1       	rcall	.+900    	; 0x5f4 <__cmpsf2>
 270:	87 ff       	sbrs	r24, 7
 272:	03 c0       	rjmp	.+6      	; 0x27a <buzzer_led+0x90>
 274:	8c eb       	ldi	r24, 0xBC	; 188
 276:	92 e0       	ldi	r25, 0x02	; 2
 278:	47 c0       	rjmp	.+142    	; 0x308 <buzzer_led+0x11e>
 27a:	60 91 30 01 	lds	r22, 0x0130
 27e:	70 91 31 01 	lds	r23, 0x0131
 282:	80 91 32 01 	lds	r24, 0x0132
 286:	90 91 33 01 	lds	r25, 0x0133
 28a:	20 e0       	ldi	r18, 0x00	; 0
 28c:	30 e0       	ldi	r19, 0x00	; 0
 28e:	4c e0       	ldi	r20, 0x0C	; 12
 290:	52 e4       	ldi	r21, 0x42	; 66
 292:	b0 d1       	rcall	.+864    	; 0x5f4 <__cmpsf2>
 294:	87 ff       	sbrs	r24, 7
 296:	03 c0       	rjmp	.+6      	; 0x29e <buzzer_led+0xb4>
 298:	88 ee       	ldi	r24, 0xE8	; 232
 29a:	93 e0       	ldi	r25, 0x03	; 3
 29c:	35 c0       	rjmp	.+106    	; 0x308 <buzzer_led+0x11e>
 29e:	60 91 30 01 	lds	r22, 0x0130
 2a2:	70 91 31 01 	lds	r23, 0x0131
 2a6:	80 91 32 01 	lds	r24, 0x0132
 2aa:	90 91 33 01 	lds	r25, 0x0133
 2ae:	20 e0       	ldi	r18, 0x00	; 0
 2b0:	30 e0       	ldi	r19, 0x00	; 0
 2b2:	40 e2       	ldi	r20, 0x20	; 32
 2b4:	52 e4       	ldi	r21, 0x42	; 66
 2b6:	9e d1       	rcall	.+828    	; 0x5f4 <__cmpsf2>
 2b8:	87 ff       	sbrs	r24, 7
 2ba:	03 c0       	rjmp	.+6      	; 0x2c2 <buzzer_led+0xd8>
 2bc:	88 e7       	ldi	r24, 0x78	; 120
 2be:	95 e0       	ldi	r25, 0x05	; 5
 2c0:	23 c0       	rjmp	.+70     	; 0x308 <buzzer_led+0x11e>
 2c2:	60 91 30 01 	lds	r22, 0x0130
 2c6:	70 91 31 01 	lds	r23, 0x0131
 2ca:	80 91 32 01 	lds	r24, 0x0132
 2ce:	90 91 33 01 	lds	r25, 0x0133
 2d2:	20 e0       	ldi	r18, 0x00	; 0
 2d4:	30 e0       	ldi	r19, 0x00	; 0
 2d6:	44 e3       	ldi	r20, 0x34	; 52
 2d8:	52 e4       	ldi	r21, 0x42	; 66
 2da:	8c d1       	rcall	.+792    	; 0x5f4 <__cmpsf2>
 2dc:	87 ff       	sbrs	r24, 7
 2de:	03 c0       	rjmp	.+6      	; 0x2e6 <buzzer_led+0xfc>
 2e0:	84 ea       	ldi	r24, 0xA4	; 164
 2e2:	96 e0       	ldi	r25, 0x06	; 6
 2e4:	11 c0       	rjmp	.+34     	; 0x308 <buzzer_led+0x11e>
 2e6:	60 91 30 01 	lds	r22, 0x0130
 2ea:	70 91 31 01 	lds	r23, 0x0131
 2ee:	80 91 32 01 	lds	r24, 0x0132
 2f2:	90 91 33 01 	lds	r25, 0x0133
 2f6:	20 e0       	ldi	r18, 0x00	; 0
 2f8:	30 e0       	ldi	r19, 0x00	; 0
 2fa:	48 e4       	ldi	r20, 0x48	; 72
 2fc:	52 e4       	ldi	r21, 0x42	; 66
 2fe:	7a d1       	rcall	.+756    	; 0x5f4 <__cmpsf2>
 300:	87 ff       	sbrs	r24, 7
 302:	06 c0       	rjmp	.+12     	; 0x310 <buzzer_led+0x126>
 304:	80 ed       	ldi	r24, 0xD0	; 208
 306:	97 e0       	ldi	r25, 0x07	; 7
 308:	90 93 35 01 	sts	0x0135, r25
 30c:	80 93 34 01 	sts	0x0134, r24
 310:	60 91 30 01 	lds	r22, 0x0130
 314:	70 91 31 01 	lds	r23, 0x0131
 318:	80 91 32 01 	lds	r24, 0x0132
 31c:	90 91 33 01 	lds	r25, 0x0133
 320:	20 e0       	ldi	r18, 0x00	; 0
 322:	30 e0       	ldi	r19, 0x00	; 0
 324:	48 e4       	ldi	r20, 0x48	; 72
 326:	52 e4       	ldi	r21, 0x42	; 66
 328:	24 d2       	rcall	.+1096   	; 0x772 <__gesf2>
 32a:	18 16       	cp	r1, r24
 32c:	44 f4       	brge	.+16     	; 0x33e <buzzer_led+0x154>
 32e:	80 91 70 00 	lds	r24, 0x0070
 332:	8d 7f       	andi	r24, 0xFD	; 253
 334:	80 93 70 00 	sts	0x0070, r24
 338:	29 98       	cbi	0x05, 1	; 5
 33a:	28 9a       	sbi	0x05, 0	; 5
 33c:	72 c0       	rjmp	.+228    	; 0x422 <buzzer_led+0x238>
 33e:	60 91 30 01 	lds	r22, 0x0130
 342:	70 91 31 01 	lds	r23, 0x0131
 346:	80 91 32 01 	lds	r24, 0x0132
 34a:	90 91 33 01 	lds	r25, 0x0133
 34e:	20 e0       	ldi	r18, 0x00	; 0
 350:	30 e0       	ldi	r19, 0x00	; 0
 352:	48 e4       	ldi	r20, 0x48	; 72
 354:	52 e4       	ldi	r21, 0x42	; 66
 356:	4e d1       	rcall	.+668    	; 0x5f4 <__cmpsf2>
 358:	18 16       	cp	r1, r24
 35a:	0c f4       	brge	.+2      	; 0x35e <buzzer_led+0x174>
 35c:	4c c0       	rjmp	.+152    	; 0x3f6 <buzzer_led+0x20c>
 35e:	60 91 30 01 	lds	r22, 0x0130
 362:	70 91 31 01 	lds	r23, 0x0131
 366:	80 91 32 01 	lds	r24, 0x0132
 36a:	90 91 33 01 	lds	r25, 0x0133
 36e:	20 e0       	ldi	r18, 0x00	; 0
 370:	30 e0       	ldi	r19, 0x00	; 0
 372:	40 e2       	ldi	r20, 0x20	; 32
 374:	51 e4       	ldi	r21, 0x41	; 65
 376:	fd d1       	rcall	.+1018   	; 0x772 <__gesf2>
 378:	87 fd       	sbrc	r24, 7
 37a:	3d c0       	rjmp	.+122    	; 0x3f6 <buzzer_led+0x20c>
 37c:	80 91 70 00 	lds	r24, 0x0070
 380:	82 60       	ori	r24, 0x02	; 2
 382:	80 93 70 00 	sts	0x0070, r24
 386:	80 91 2c 01 	lds	r24, 0x012C
 38a:	90 91 2d 01 	lds	r25, 0x012D
 38e:	89 2b       	or	r24, r25
 390:	a1 f4       	brne	.+40     	; 0x3ba <buzzer_led+0x1d0>
 392:	80 91 36 01 	lds	r24, 0x0136
 396:	90 91 37 01 	lds	r25, 0x0137
 39a:	80 39       	cpi	r24, 0x90	; 144
 39c:	91 40       	sbci	r25, 0x01	; 1
 39e:	1c f4       	brge	.+6      	; 0x3a6 <buzzer_led+0x1bc>
 3a0:	29 9a       	sbi	0x05, 1	; 5
 3a2:	28 98       	cbi	0x05, 0	; 5
 3a4:	0a c0       	rjmp	.+20     	; 0x3ba <buzzer_led+0x1d0>
 3a6:	81 e0       	ldi	r24, 0x01	; 1
 3a8:	90 e0       	ldi	r25, 0x00	; 0
 3aa:	90 93 2d 01 	sts	0x012D, r25
 3ae:	80 93 2c 01 	sts	0x012C, r24
 3b2:	10 92 37 01 	sts	0x0137, r1
 3b6:	10 92 36 01 	sts	0x0136, r1
 3ba:	80 91 2c 01 	lds	r24, 0x012C
 3be:	90 91 2d 01 	lds	r25, 0x012D
 3c2:	01 97       	sbiw	r24, 0x01	; 1
 3c4:	b1 f5       	brne	.+108    	; 0x432 <buzzer_led+0x248>
 3c6:	20 91 36 01 	lds	r18, 0x0136
 3ca:	30 91 37 01 	lds	r19, 0x0137
 3ce:	80 91 34 01 	lds	r24, 0x0134
 3d2:	90 91 35 01 	lds	r25, 0x0135
 3d6:	28 17       	cp	r18, r24
 3d8:	39 07       	cpc	r19, r25
 3da:	24 f4       	brge	.+8      	; 0x3e4 <buzzer_led+0x1fa>
 3dc:	29 98       	cbi	0x05, 1	; 5
 3de:	81 e0       	ldi	r24, 0x01	; 1
 3e0:	85 b9       	out	0x05, r24	; 5
 3e2:	08 95       	ret
 3e4:	10 92 2d 01 	sts	0x012D, r1
 3e8:	10 92 2c 01 	sts	0x012C, r1
 3ec:	10 92 37 01 	sts	0x0137, r1
 3f0:	10 92 36 01 	sts	0x0136, r1
 3f4:	08 95       	ret
 3f6:	60 91 30 01 	lds	r22, 0x0130
 3fa:	70 91 31 01 	lds	r23, 0x0131
 3fe:	80 91 32 01 	lds	r24, 0x0132
 402:	90 91 33 01 	lds	r25, 0x0133
 406:	20 e0       	ldi	r18, 0x00	; 0
 408:	30 e0       	ldi	r19, 0x00	; 0
 40a:	40 e2       	ldi	r20, 0x20	; 32
 40c:	51 e4       	ldi	r21, 0x41	; 65
 40e:	f2 d0       	rcall	.+484    	; 0x5f4 <__cmpsf2>
 410:	87 ff       	sbrs	r24, 7
 412:	0f c0       	rjmp	.+30     	; 0x432 <buzzer_led+0x248>
 414:	80 91 70 00 	lds	r24, 0x0070
 418:	8d 7f       	andi	r24, 0xFD	; 253
 41a:	80 93 70 00 	sts	0x0070, r24
 41e:	29 9a       	sbi	0x05, 1	; 5
 420:	28 98       	cbi	0x05, 0	; 5
 422:	10 92 37 01 	sts	0x0137, r1
 426:	10 92 36 01 	sts	0x0136, r1
 42a:	10 92 2d 01 	sts	0x012D, r1
 42e:	10 92 2c 01 	sts	0x012C, r1
 432:	08 95       	ret

00000434 <main>:
 434:	54 9a       	sbi	0x0a, 4	; 10
 436:	5a 98       	cbi	0x0b, 2	; 11
 438:	21 9a       	sbi	0x04, 1	; 4
 43a:	20 9a       	sbi	0x04, 0	; 4
 43c:	8e de       	rcall	.-740    	; 0x15a <lcd_init>
 43e:	e8 9a       	sbi	0x1d, 0	; 29
 440:	80 91 69 00 	lds	r24, 0x0069
 444:	81 60       	ori	r24, 0x01	; 1
 446:	80 93 69 00 	sts	0x0069, r24
 44a:	84 b5       	in	r24, 0x24	; 36
 44c:	82 60       	ori	r24, 0x02	; 2
 44e:	84 bd       	out	0x24, r24	; 36
 450:	88 e3       	ldi	r24, 0x38	; 56
 452:	87 bd       	out	0x27, r24	; 39
 454:	80 91 b0 00 	lds	r24, 0x00B0
 458:	82 60       	ori	r24, 0x02	; 2
 45a:	80 93 b0 00 	sts	0x00B0, r24
 45e:	8c e7       	ldi	r24, 0x7C	; 124
 460:	80 93 b3 00 	sts	0x00B3, r24
 464:	78 94       	sei
 466:	85 b5       	in	r24, 0x25	; 37
 468:	82 60       	ori	r24, 0x02	; 2
 46a:	85 bd       	out	0x25, r24	; 37
 46c:	80 91 b1 00 	lds	r24, 0x00B1
 470:	84 60       	ori	r24, 0x04	; 4
 472:	80 93 b1 00 	sts	0x00B1, r24
 476:	aa de       	rcall	.-684    	; 0x1cc <trigger>
 478:	80 91 38 01 	lds	r24, 0x0138
 47c:	90 91 39 01 	lds	r25, 0x0139
 480:	97 fd       	sbrc	r25, 7
 482:	01 96       	adiw	r24, 0x01	; 1
 484:	bc 01       	movw	r22, r24
 486:	75 95       	asr	r23
 488:	67 95       	ror	r22
 48a:	88 27       	eor	r24, r24
 48c:	77 fd       	sbrc	r23, 7
 48e:	80 95       	com	r24
 490:	98 2f       	mov	r25, r24
 492:	e7 d0       	rcall	.+462    	; 0x662 <__floatsisf>
 494:	60 93 30 01 	sts	0x0130, r22
 498:	70 93 31 01 	sts	0x0131, r23
 49c:	80 93 32 01 	sts	0x0132, r24
 4a0:	90 93 33 01 	sts	0x0133, r25
 4a4:	a2 de       	rcall	.-700    	; 0x1ea <buzzer_led>
 4a6:	60 e0       	ldi	r22, 0x00	; 0
 4a8:	80 e0       	ldi	r24, 0x00	; 0
 4aa:	48 de       	rcall	.-880    	; 0x13c <lcd_locate>
 4ac:	80 e0       	ldi	r24, 0x00	; 0
 4ae:	91 e0       	ldi	r25, 0x01	; 1
 4b0:	1c de       	rcall	.-968    	; 0xea <lcd_str>
 4b2:	69 e0       	ldi	r22, 0x09	; 9
 4b4:	80 e0       	ldi	r24, 0x00	; 0
 4b6:	42 de       	rcall	.-892    	; 0x13c <lcd_locate>
 4b8:	88 e0       	ldi	r24, 0x08	; 8
 4ba:	91 e0       	ldi	r25, 0x01	; 1
 4bc:	16 de       	rcall	.-980    	; 0xea <lcd_str>
 4be:	60 e0       	ldi	r22, 0x00	; 0
 4c0:	81 e0       	ldi	r24, 0x01	; 1
 4c2:	3c de       	rcall	.-904    	; 0x13c <lcd_locate>
 4c4:	8f e0       	ldi	r24, 0x0F	; 15
 4c6:	91 e0       	ldi	r25, 0x01	; 1
 4c8:	10 de       	rcall	.-992    	; 0xea <lcd_str>
 4ca:	69 e0       	ldi	r22, 0x09	; 9
 4cc:	81 e0       	ldi	r24, 0x01	; 1
 4ce:	36 de       	rcall	.-916    	; 0x13c <lcd_locate>
 4d0:	8a e1       	ldi	r24, 0x1A	; 26
 4d2:	91 e0       	ldi	r25, 0x01	; 1
 4d4:	0a de       	rcall	.-1004   	; 0xea <lcd_str>
 4d6:	6a e0       	ldi	r22, 0x0A	; 10
 4d8:	81 e0       	ldi	r24, 0x01	; 1
 4da:	30 de       	rcall	.-928    	; 0x13c <lcd_locate>
 4dc:	60 91 30 01 	lds	r22, 0x0130
 4e0:	70 91 31 01 	lds	r23, 0x0131
 4e4:	80 91 32 01 	lds	r24, 0x0132
 4e8:	90 91 33 01 	lds	r25, 0x0133
 4ec:	20 e0       	ldi	r18, 0x00	; 0
 4ee:	30 e0       	ldi	r19, 0x00	; 0
 4f0:	48 e4       	ldi	r20, 0x48	; 72
 4f2:	52 e4       	ldi	r21, 0x42	; 66
 4f4:	7f d0       	rcall	.+254    	; 0x5f4 <__cmpsf2>
 4f6:	87 ff       	sbrs	r24, 7
 4f8:	11 c0       	rjmp	.+34     	; 0x51c <__stack+0x1d>
 4fa:	60 91 30 01 	lds	r22, 0x0130
 4fe:	70 91 31 01 	lds	r23, 0x0131
 502:	80 91 32 01 	lds	r24, 0x0132
 506:	90 91 33 01 	lds	r25, 0x0133
 50a:	78 d0       	rcall	.+240    	; 0x5fc <__fixsfsi>
 50c:	cb 01       	movw	r24, r22
 50e:	fd dd       	rcall	.-1030   	; 0x10a <lcd_int>
 510:	6e e0       	ldi	r22, 0x0E	; 14
 512:	81 e0       	ldi	r24, 0x01	; 1
 514:	13 de       	rcall	.-986    	; 0x13c <lcd_locate>
 516:	80 e2       	ldi	r24, 0x20	; 32
 518:	91 e0       	ldi	r25, 0x01	; 1
 51a:	05 c0       	rjmp	.+10     	; 0x526 <__stack+0x27>
 51c:	69 e0       	ldi	r22, 0x09	; 9
 51e:	81 e0       	ldi	r24, 0x01	; 1
 520:	0d de       	rcall	.-998    	; 0x13c <lcd_locate>
 522:	83 e2       	ldi	r24, 0x23	; 35
 524:	91 e0       	ldi	r25, 0x01	; 1
 526:	e1 dd       	rcall	.-1086   	; 0xea <lcd_str>
 528:	a6 cf       	rjmp	.-180    	; 0x476 <main+0x42>

0000052a <__vector_7>:
 52a:	1f 92       	push	r1
 52c:	0f 92       	push	r0
 52e:	0f b6       	in	r0, 0x3f	; 63
 530:	0f 92       	push	r0
 532:	11 24       	eor	r1, r1
 534:	8f 93       	push	r24
 536:	9f 93       	push	r25
 538:	80 91 36 01 	lds	r24, 0x0136
 53c:	90 91 37 01 	lds	r25, 0x0137
 540:	01 96       	adiw	r24, 0x01	; 1
 542:	90 93 37 01 	sts	0x0137, r25
 546:	80 93 36 01 	sts	0x0136, r24
 54a:	9f 91       	pop	r25
 54c:	8f 91       	pop	r24
 54e:	0f 90       	pop	r0
 550:	0f be       	out	0x3f, r0	; 63
 552:	0f 90       	pop	r0
 554:	1f 90       	pop	r1
 556:	18 95       	reti

00000558 <__vector_14>:
 558:	1f 92       	push	r1
 55a:	0f 92       	push	r0
 55c:	0f b6       	in	r0, 0x3f	; 63
 55e:	0f 92       	push	r0
 560:	11 24       	eor	r1, r1
 562:	8f 93       	push	r24
 564:	9f 93       	push	r25
 566:	80 91 3a 01 	lds	r24, 0x013A
 56a:	90 91 3b 01 	lds	r25, 0x013B
 56e:	01 96       	adiw	r24, 0x01	; 1
 570:	90 93 3b 01 	sts	0x013B, r25
 574:	80 93 3a 01 	sts	0x013A, r24
 578:	9f 91       	pop	r25
 57a:	8f 91       	pop	r24
 57c:	0f 90       	pop	r0
 57e:	0f be       	out	0x3f, r0	; 63
 580:	0f 90       	pop	r0
 582:	1f 90       	pop	r1
 584:	18 95       	reti

00000586 <__vector_1>:
 586:	1f 92       	push	r1
 588:	0f 92       	push	r0
 58a:	0f b6       	in	r0, 0x3f	; 63
 58c:	0f 92       	push	r0
 58e:	11 24       	eor	r1, r1
 590:	8f 93       	push	r24
 592:	9f 93       	push	r25
 594:	80 91 2e 01 	lds	r24, 0x012E
 598:	90 91 2f 01 	lds	r25, 0x012F
 59c:	00 97       	sbiw	r24, 0x00	; 0
 59e:	61 f4       	brne	.+24     	; 0x5b8 <__vector_1+0x32>
 5a0:	80 91 6e 00 	lds	r24, 0x006E
 5a4:	82 60       	ori	r24, 0x02	; 2
 5a6:	80 93 6e 00 	sts	0x006E, r24
 5aa:	81 e0       	ldi	r24, 0x01	; 1
 5ac:	90 e0       	ldi	r25, 0x00	; 0
 5ae:	90 93 2f 01 	sts	0x012F, r25
 5b2:	80 93 2e 01 	sts	0x012E, r24
 5b6:	17 c0       	rjmp	.+46     	; 0x5e6 <__vector_1+0x60>
 5b8:	01 97       	sbiw	r24, 0x01	; 1
 5ba:	a9 f4       	brne	.+42     	; 0x5e6 <__vector_1+0x60>
 5bc:	80 91 6e 00 	lds	r24, 0x006E
 5c0:	8d 7f       	andi	r24, 0xFD	; 253
 5c2:	80 93 6e 00 	sts	0x006E, r24
 5c6:	80 91 3a 01 	lds	r24, 0x013A
 5ca:	90 91 3b 01 	lds	r25, 0x013B
 5ce:	90 93 39 01 	sts	0x0139, r25
 5d2:	80 93 38 01 	sts	0x0138, r24
 5d6:	10 92 3b 01 	sts	0x013B, r1
 5da:	10 92 3a 01 	sts	0x013A, r1
 5de:	10 92 2f 01 	sts	0x012F, r1
 5e2:	10 92 2e 01 	sts	0x012E, r1
 5e6:	9f 91       	pop	r25
 5e8:	8f 91       	pop	r24
 5ea:	0f 90       	pop	r0
 5ec:	0f be       	out	0x3f, r0	; 63
 5ee:	0f 90       	pop	r0
 5f0:	1f 90       	pop	r1
 5f2:	18 95       	reti

000005f4 <__cmpsf2>:
 5f4:	71 d0       	rcall	.+226    	; 0x6d8 <__fp_cmp>
 5f6:	08 f4       	brcc	.+2      	; 0x5fa <__cmpsf2+0x6>
 5f8:	81 e0       	ldi	r24, 0x01	; 1
 5fa:	08 95       	ret

000005fc <__fixsfsi>:
 5fc:	04 d0       	rcall	.+8      	; 0x606 <__fixunssfsi>
 5fe:	68 94       	set
 600:	b1 11       	cpse	r27, r1
 602:	b1 c0       	rjmp	.+354    	; 0x766 <__fp_szero>
 604:	08 95       	ret

00000606 <__fixunssfsi>:
 606:	94 d0       	rcall	.+296    	; 0x730 <__fp_splitA>
 608:	88 f0       	brcs	.+34     	; 0x62c <__fixunssfsi+0x26>
 60a:	9f 57       	subi	r25, 0x7F	; 127
 60c:	90 f0       	brcs	.+36     	; 0x632 <__fixunssfsi+0x2c>
 60e:	b9 2f       	mov	r27, r25
 610:	99 27       	eor	r25, r25
 612:	b7 51       	subi	r27, 0x17	; 23
 614:	a0 f0       	brcs	.+40     	; 0x63e <__fixunssfsi+0x38>
 616:	d1 f0       	breq	.+52     	; 0x64c <__fixunssfsi+0x46>
 618:	66 0f       	add	r22, r22
 61a:	77 1f       	adc	r23, r23
 61c:	88 1f       	adc	r24, r24
 61e:	99 1f       	adc	r25, r25
 620:	1a f0       	brmi	.+6      	; 0x628 <__fixunssfsi+0x22>
 622:	ba 95       	dec	r27
 624:	c9 f7       	brne	.-14     	; 0x618 <__fixunssfsi+0x12>
 626:	12 c0       	rjmp	.+36     	; 0x64c <__fixunssfsi+0x46>
 628:	b1 30       	cpi	r27, 0x01	; 1
 62a:	81 f0       	breq	.+32     	; 0x64c <__fixunssfsi+0x46>
 62c:	9b d0       	rcall	.+310    	; 0x764 <__fp_zero>
 62e:	b1 e0       	ldi	r27, 0x01	; 1
 630:	08 95       	ret
 632:	98 c0       	rjmp	.+304    	; 0x764 <__fp_zero>
 634:	67 2f       	mov	r22, r23
 636:	78 2f       	mov	r23, r24
 638:	88 27       	eor	r24, r24
 63a:	b8 5f       	subi	r27, 0xF8	; 248
 63c:	39 f0       	breq	.+14     	; 0x64c <__fixunssfsi+0x46>
 63e:	b9 3f       	cpi	r27, 0xF9	; 249
 640:	cc f3       	brlt	.-14     	; 0x634 <__fixunssfsi+0x2e>
 642:	86 95       	lsr	r24
 644:	77 95       	ror	r23
 646:	67 95       	ror	r22
 648:	b3 95       	inc	r27
 64a:	d9 f7       	brne	.-10     	; 0x642 <__fixunssfsi+0x3c>
 64c:	3e f4       	brtc	.+14     	; 0x65c <__fixunssfsi+0x56>
 64e:	90 95       	com	r25
 650:	80 95       	com	r24
 652:	70 95       	com	r23
 654:	61 95       	neg	r22
 656:	7f 4f       	sbci	r23, 0xFF	; 255
 658:	8f 4f       	sbci	r24, 0xFF	; 255
 65a:	9f 4f       	sbci	r25, 0xFF	; 255
 65c:	08 95       	ret

0000065e <__floatunsisf>:
 65e:	e8 94       	clt
 660:	09 c0       	rjmp	.+18     	; 0x674 <__floatsisf+0x12>

00000662 <__floatsisf>:
 662:	97 fb       	bst	r25, 7
 664:	3e f4       	brtc	.+14     	; 0x674 <__floatsisf+0x12>
 666:	90 95       	com	r25
 668:	80 95       	com	r24
 66a:	70 95       	com	r23
 66c:	61 95       	neg	r22
 66e:	7f 4f       	sbci	r23, 0xFF	; 255
 670:	8f 4f       	sbci	r24, 0xFF	; 255
 672:	9f 4f       	sbci	r25, 0xFF	; 255
 674:	99 23       	and	r25, r25
 676:	a9 f0       	breq	.+42     	; 0x6a2 <__floatsisf+0x40>
 678:	f9 2f       	mov	r31, r25
 67a:	96 e9       	ldi	r25, 0x96	; 150
 67c:	bb 27       	eor	r27, r27
 67e:	93 95       	inc	r25
 680:	f6 95       	lsr	r31
 682:	87 95       	ror	r24
 684:	77 95       	ror	r23
 686:	67 95       	ror	r22
 688:	b7 95       	ror	r27
 68a:	f1 11       	cpse	r31, r1
 68c:	f8 cf       	rjmp	.-16     	; 0x67e <__floatsisf+0x1c>
 68e:	fa f4       	brpl	.+62     	; 0x6ce <__floatsisf+0x6c>
 690:	bb 0f       	add	r27, r27
 692:	11 f4       	brne	.+4      	; 0x698 <__floatsisf+0x36>
 694:	60 ff       	sbrs	r22, 0
 696:	1b c0       	rjmp	.+54     	; 0x6ce <__floatsisf+0x6c>
 698:	6f 5f       	subi	r22, 0xFF	; 255
 69a:	7f 4f       	sbci	r23, 0xFF	; 255
 69c:	8f 4f       	sbci	r24, 0xFF	; 255
 69e:	9f 4f       	sbci	r25, 0xFF	; 255
 6a0:	16 c0       	rjmp	.+44     	; 0x6ce <__floatsisf+0x6c>
 6a2:	88 23       	and	r24, r24
 6a4:	11 f0       	breq	.+4      	; 0x6aa <__floatsisf+0x48>
 6a6:	96 e9       	ldi	r25, 0x96	; 150
 6a8:	11 c0       	rjmp	.+34     	; 0x6cc <__floatsisf+0x6a>
 6aa:	77 23       	and	r23, r23
 6ac:	21 f0       	breq	.+8      	; 0x6b6 <__floatsisf+0x54>
 6ae:	9e e8       	ldi	r25, 0x8E	; 142
 6b0:	87 2f       	mov	r24, r23
 6b2:	76 2f       	mov	r23, r22
 6b4:	05 c0       	rjmp	.+10     	; 0x6c0 <__floatsisf+0x5e>
 6b6:	66 23       	and	r22, r22
 6b8:	71 f0       	breq	.+28     	; 0x6d6 <__floatsisf+0x74>
 6ba:	96 e8       	ldi	r25, 0x86	; 134
 6bc:	86 2f       	mov	r24, r22
 6be:	70 e0       	ldi	r23, 0x00	; 0
 6c0:	60 e0       	ldi	r22, 0x00	; 0
 6c2:	2a f0       	brmi	.+10     	; 0x6ce <__floatsisf+0x6c>
 6c4:	9a 95       	dec	r25
 6c6:	66 0f       	add	r22, r22
 6c8:	77 1f       	adc	r23, r23
 6ca:	88 1f       	adc	r24, r24
 6cc:	da f7       	brpl	.-10     	; 0x6c4 <__floatsisf+0x62>
 6ce:	88 0f       	add	r24, r24
 6d0:	96 95       	lsr	r25
 6d2:	87 95       	ror	r24
 6d4:	97 f9       	bld	r25, 7
 6d6:	08 95       	ret

000006d8 <__fp_cmp>:
 6d8:	99 0f       	add	r25, r25
 6da:	00 08       	sbc	r0, r0
 6dc:	55 0f       	add	r21, r21
 6de:	aa 0b       	sbc	r26, r26
 6e0:	e0 e8       	ldi	r30, 0x80	; 128
 6e2:	fe ef       	ldi	r31, 0xFE	; 254
 6e4:	16 16       	cp	r1, r22
 6e6:	17 06       	cpc	r1, r23
 6e8:	e8 07       	cpc	r30, r24
 6ea:	f9 07       	cpc	r31, r25
 6ec:	c0 f0       	brcs	.+48     	; 0x71e <__fp_cmp+0x46>
 6ee:	12 16       	cp	r1, r18
 6f0:	13 06       	cpc	r1, r19
 6f2:	e4 07       	cpc	r30, r20
 6f4:	f5 07       	cpc	r31, r21
 6f6:	98 f0       	brcs	.+38     	; 0x71e <__fp_cmp+0x46>
 6f8:	62 1b       	sub	r22, r18
 6fa:	73 0b       	sbc	r23, r19
 6fc:	84 0b       	sbc	r24, r20
 6fe:	95 0b       	sbc	r25, r21
 700:	39 f4       	brne	.+14     	; 0x710 <__fp_cmp+0x38>
 702:	0a 26       	eor	r0, r26
 704:	61 f0       	breq	.+24     	; 0x71e <__fp_cmp+0x46>
 706:	23 2b       	or	r18, r19
 708:	24 2b       	or	r18, r20
 70a:	25 2b       	or	r18, r21
 70c:	21 f4       	brne	.+8      	; 0x716 <__fp_cmp+0x3e>
 70e:	08 95       	ret
 710:	0a 26       	eor	r0, r26
 712:	09 f4       	brne	.+2      	; 0x716 <__fp_cmp+0x3e>
 714:	a1 40       	sbci	r26, 0x01	; 1
 716:	a6 95       	lsr	r26
 718:	8f ef       	ldi	r24, 0xFF	; 255
 71a:	81 1d       	adc	r24, r1
 71c:	81 1d       	adc	r24, r1
 71e:	08 95       	ret

00000720 <__fp_split3>:
 720:	57 fd       	sbrc	r21, 7
 722:	90 58       	subi	r25, 0x80	; 128
 724:	44 0f       	add	r20, r20
 726:	55 1f       	adc	r21, r21
 728:	59 f0       	breq	.+22     	; 0x740 <__fp_splitA+0x10>
 72a:	5f 3f       	cpi	r21, 0xFF	; 255
 72c:	71 f0       	breq	.+28     	; 0x74a <__fp_splitA+0x1a>
 72e:	47 95       	ror	r20

00000730 <__fp_splitA>:
 730:	88 0f       	add	r24, r24
 732:	97 fb       	bst	r25, 7
 734:	99 1f       	adc	r25, r25
 736:	61 f0       	breq	.+24     	; 0x750 <__fp_splitA+0x20>
 738:	9f 3f       	cpi	r25, 0xFF	; 255
 73a:	79 f0       	breq	.+30     	; 0x75a <__fp_splitA+0x2a>
 73c:	87 95       	ror	r24
 73e:	08 95       	ret
 740:	12 16       	cp	r1, r18
 742:	13 06       	cpc	r1, r19
 744:	14 06       	cpc	r1, r20
 746:	55 1f       	adc	r21, r21
 748:	f2 cf       	rjmp	.-28     	; 0x72e <__fp_split3+0xe>
 74a:	46 95       	lsr	r20
 74c:	f1 df       	rcall	.-30     	; 0x730 <__fp_splitA>
 74e:	08 c0       	rjmp	.+16     	; 0x760 <__fp_splitA+0x30>
 750:	16 16       	cp	r1, r22
 752:	17 06       	cpc	r1, r23
 754:	18 06       	cpc	r1, r24
 756:	99 1f       	adc	r25, r25
 758:	f1 cf       	rjmp	.-30     	; 0x73c <__fp_splitA+0xc>
 75a:	86 95       	lsr	r24
 75c:	71 05       	cpc	r23, r1
 75e:	61 05       	cpc	r22, r1
 760:	08 94       	sec
 762:	08 95       	ret

00000764 <__fp_zero>:
 764:	e8 94       	clt

00000766 <__fp_szero>:
 766:	bb 27       	eor	r27, r27
 768:	66 27       	eor	r22, r22
 76a:	77 27       	eor	r23, r23
 76c:	cb 01       	movw	r24, r22
 76e:	97 f9       	bld	r25, 7
 770:	08 95       	ret

00000772 <__gesf2>:
 772:	b2 df       	rcall	.-156    	; 0x6d8 <__fp_cmp>
 774:	08 f4       	brcc	.+2      	; 0x778 <__gesf2+0x6>
 776:	8f ef       	ldi	r24, 0xFF	; 255
 778:	08 95       	ret

0000077a <__itoa_ncheck>:
 77a:	bb 27       	eor	r27, r27
 77c:	4a 30       	cpi	r20, 0x0A	; 10
 77e:	31 f4       	brne	.+12     	; 0x78c <__itoa_ncheck+0x12>
 780:	99 23       	and	r25, r25
 782:	22 f4       	brpl	.+8      	; 0x78c <__itoa_ncheck+0x12>
 784:	bd e2       	ldi	r27, 0x2D	; 45
 786:	90 95       	com	r25
 788:	81 95       	neg	r24
 78a:	9f 4f       	sbci	r25, 0xFF	; 255
 78c:	01 c0       	rjmp	.+2      	; 0x790 <__utoa_common>

0000078e <__utoa_ncheck>:
 78e:	bb 27       	eor	r27, r27

00000790 <__utoa_common>:
 790:	fb 01       	movw	r30, r22
 792:	55 27       	eor	r21, r21
 794:	aa 27       	eor	r26, r26
 796:	88 0f       	add	r24, r24
 798:	99 1f       	adc	r25, r25
 79a:	aa 1f       	adc	r26, r26
 79c:	a4 17       	cp	r26, r20
 79e:	10 f0       	brcs	.+4      	; 0x7a4 <__utoa_common+0x14>
 7a0:	a4 1b       	sub	r26, r20
 7a2:	83 95       	inc	r24
 7a4:	50 51       	subi	r21, 0x10	; 16
 7a6:	b9 f7       	brne	.-18     	; 0x796 <__utoa_common+0x6>
 7a8:	a0 5d       	subi	r26, 0xD0	; 208
 7aa:	aa 33       	cpi	r26, 0x3A	; 58
 7ac:	08 f0       	brcs	.+2      	; 0x7b0 <__utoa_common+0x20>
 7ae:	a9 5d       	subi	r26, 0xD9	; 217
 7b0:	a1 93       	st	Z+, r26
 7b2:	00 97       	sbiw	r24, 0x00	; 0
 7b4:	79 f7       	brne	.-34     	; 0x794 <__utoa_common+0x4>
 7b6:	b1 11       	cpse	r27, r1
 7b8:	b1 93       	st	Z+, r27
 7ba:	11 92       	st	Z+, r1
 7bc:	cb 01       	movw	r24, r22
 7be:	00 c0       	rjmp	.+0      	; 0x7c0 <strrev>

000007c0 <strrev>:
 7c0:	dc 01       	movw	r26, r24
 7c2:	fc 01       	movw	r30, r24
 7c4:	67 2f       	mov	r22, r23
 7c6:	71 91       	ld	r23, Z+
 7c8:	77 23       	and	r23, r23
 7ca:	e1 f7       	brne	.-8      	; 0x7c4 <strrev+0x4>
 7cc:	32 97       	sbiw	r30, 0x02	; 2
 7ce:	04 c0       	rjmp	.+8      	; 0x7d8 <strrev+0x18>
 7d0:	7c 91       	ld	r23, X
 7d2:	6d 93       	st	X+, r22
 7d4:	70 83       	st	Z, r23
 7d6:	62 91       	ld	r22, -Z
 7d8:	ae 17       	cp	r26, r30
 7da:	bf 07       	cpc	r27, r31
 7dc:	c8 f3       	brcs	.-14     	; 0x7d0 <strrev+0x10>
 7de:	08 95       	ret

000007e0 <_exit>:
 7e0:	f8 94       	cli

000007e2 <__stop_program>:
 7e2:	ff cf       	rjmp	.-2      	; 0x7e2 <__stop_program>
